; Function Attrs: mustprogress uwtable
define internal void @_ZNK3gmx12_GLOBAL__N_115ModuleHelpTopic9writeHelpERKNS_17HelpWriterContextE(ptr nocapture noundef nonnull readonly align 8 dereferenceable(24) %0, ptr nocapture nonnull readnone align 8 %1) unnamed_addr #1 align 2 personality ptr @__gxx_personality_v0 {
  %3 = alloca %"class.gmx::CommandLineHelpContext", align 8
  %4 = alloca %"class.std::__cxx11::basic_string", align 8
  %5 = getelementptr inbounds i8, ptr %0, i64 16
  %6 = load ptr, ptr %5, align 8
  %7 = getelementptr inbounds i8, ptr %6, i64 136
  %8 = load ptr, ptr %7, align 8
  call void @_ZN3gmx22CommandLineHelpContextC1ERKS0_(ptr noundef nonnull align 8 dereferenceable(8) %3, ptr noundef nonnull align 8 dereferenceable(8) %8)
  %9 = load ptr, ptr %5, align 8
  %10 = getelementptr inbounds i8, ptr %9, i64 88
  %11 = call noundef ptr @_ZNKSt7__cxx1112basic_stringIcSt11char_traitsIcESaIcEE5c_strEv(ptr noundef nonnull align 8 dereferenceable(32) %10) #19
  %12 = getelementptr inbounds i8, ptr %0, i64 8
  %13 = load ptr, ptr %12, align 8
  %14 = load ptr, ptr %13, align 8
  %15 = getelementptr inbounds i8, ptr %14, i64 16
  %16 = load ptr, ptr %15, align 8
  %17 = invoke noundef ptr %16(ptr noundef nonnull align 8 dereferenceable(8) %13)
          to label %18 unwind label %26

18:                                               ; preds = %2
  invoke void (ptr, ptr, ...) @_ZN3gmx12formatStringB5cxx11EPKcz(ptr dead_on_unwind nonnull writable sret(%"class.std::__cxx11::basic_string") align 8 %4, ptr noundef nonnull @.str.14, ptr noundef %11, ptr noundef %17)
          to label %19 unwind label %26

19:                                               ; preds = %18
  invoke void @_ZN3gmx22CommandLineHelpContext20setModuleDisplayNameERKNSt7__cxx1112basic_stringIcSt11char_traitsIcESaIcEEE(ptr noundef nonnull align 8 dereferenceable(8) %3, ptr noundef nonnull align 8 dereferenceable(32) %4)
          to label %20 unwind label %28

20:                                               ; preds = %19
  call void @_ZNSt7__cxx1112basic_stringIcSt11char_traitsIcESaIcEED1Ev(ptr noundef nonnull align 8 dereferenceable(32) %4) #19
  %21 = load ptr, ptr %12, align 8
  %22 = load ptr, ptr %21, align 8
  %23 = getelementptr inbounds i8, ptr %22, i64 48
  %24 = load ptr, ptr %23, align 8
  invoke void %24(ptr noundef nonnull align 8 dereferenceable(8) %21, ptr noundef nonnull align 8 dereferenceable(8) %3)
          to label %25 unwind label %26

25:                                               ; preds = %20
  call void @_ZN3gmx22CommandLineHelpContextD1Ev(ptr noundef nonnull align 8 dereferenceable(8) %3) #19
  ret void

26:                                               ; preds = %20, %18, %2
  %27 = landingpad { ptr, i32 }
          cleanup
  br label %30

28:                                               ; preds = %19
  %29 = landingpad { ptr, i32 }
          cleanup
  call void @_ZNSt7__cxx1112basic_stringIcSt11char_traitsIcESaIcEED1Ev(ptr noundef nonnull align 8 dereferenceable(32) %4) #19
  br label %30

30:                                               ; preds = %28, %26
  %.pn = phi { ptr, i32 } [ %27, %26 ], [ %29, %28 ]
  call void @_ZN3gmx22CommandLineHelpContextD1Ev(ptr noundef nonnull align 8 dereferenceable(8) %3) #19
  resume { ptr, i32 } %.pn
}